; Function Attrs: mustprogress nofree norecurse nosync nounwind willreturn memory(read, argmem: readwrite, inaccessiblemem: none) uwtable
define dso_local ptr @lua_topointer(ptr noundef captures(none) %0, i32 noundef %1) local_unnamed_addr #9 {
  %3 = icmp sgt i32 %1, 0
  br i1 %3, label %4, label %12

4:                                                ; preds = %2
  %5 = getelementptr inbounds nuw i8, ptr %0, i64 24
  %6 = load ptr, ptr %5, align 8, !tbaa !21
  %7 = zext nneg i32 %1 to i64
  %8 = getelementptr %struct.lua_TValue, ptr %6, i64 %7
  %9 = getelementptr i8, ptr %8, i64 -16
  %10 = getelementptr inbounds nuw i8, ptr %0, i64 16
  %11 = load ptr, ptr %10, align 8, !tbaa !4
  %.not28.i = icmp ult ptr %9, %11
  %.luaO_nilobject_.i = select i1 %.not28.i, ptr %9, ptr @luaO_nilobject_
  br label %index2adr.exit

12:                                               ; preds = %2
  %13 = icmp sgt i32 %1, -10000
  br i1 %13, label %14, label %19

14:                                               ; preds = %12
  %15 = getelementptr inbounds nuw i8, ptr %0, i64 16
  %16 = load ptr, ptr %15, align 8, !tbaa !4
  %17 = sext i32 %1 to i64
  %18 = getelementptr inbounds %struct.lua_TValue, ptr %16, i64 %17
  br label %index2adr.exit

19:                                               ; preds = %12
  switch i32 %1, label %36 [
    i32 -10000, label %20
    i32 -10001, label %24
    i32 -10002, label %34
  ]

20:                                               ; preds = %19
  %21 = getelementptr inbounds nuw i8, ptr %0, i64 32
  %22 = load ptr, ptr %21, align 8, !tbaa !29
  %23 = getelementptr inbounds nuw i8, ptr %22, i64 160
  br label %index2adr.exit

24:                                               ; preds = %19
  %25 = getelementptr inbounds nuw i8, ptr %0, i64 40
  %26 = load ptr, ptr %25, align 8, !tbaa !23
  %27 = getelementptr inbounds nuw i8, ptr %26, i64 8
  %28 = load ptr, ptr %27, align 8, !tbaa !41
  %29 = load ptr, ptr %28, align 8, !tbaa !19
  %30 = getelementptr inbounds nuw i8, ptr %0, i64 136
  %31 = getelementptr inbounds nuw i8, ptr %29, i64 24
  %32 = load ptr, ptr %31, align 8, !tbaa !19
  store ptr %32, ptr %30, align 8, !tbaa !19
  %33 = getelementptr inbounds nuw i8, ptr %0, i64 144
  store i32 5, ptr %33, align 8, !tbaa !20
  br label %index2adr.exit

34:                                               ; preds = %19
  %35 = getelementptr inbounds nuw i8, ptr %0, i64 120
  br label %index2adr.exit

36:                                               ; preds = %19
  %37 = getelementptr inbounds nuw i8, ptr %0, i64 40
  %38 = load ptr, ptr %37, align 8, !tbaa !23
  %39 = getelementptr inbounds nuw i8, ptr %38, i64 8
  %40 = load ptr, ptr %39, align 8, !tbaa !41
  %41 = load ptr, ptr %40, align 8, !tbaa !19
  %42 = sub nuw nsw i32 -10002, %1
  %43 = getelementptr inbounds nuw i8, ptr %41, i64 11
  %44 = load i8, ptr %43, align 1, !tbaa !19
  %45 = zext i8 %44 to i32
  %.not.i = icmp samesign ugt i32 %42, %45
  %46 = getelementptr inbounds nuw i8, ptr %41, i64 40
  %47 = sub nuw nsw i32 -10003, %1
  %48 = zext nneg i32 %47 to i64
  %49 = getelementptr inbounds nuw [1 x %struct.lua_TValue], ptr %46, i64 0, i64 %48
  %50 = select i1 %.not.i, ptr @luaO_nilobject_, ptr %49
  br label %index2adr.exit

index2adr.exit:                                   ; preds = %4, %14, %20, %24, %34, %36
  %.1.i = phi ptr [ %.luaO_nilobject_.i, %4 ], [ %18, %14 ], [ %50, %36 ], [ %35, %34 ], [ %30, %24 ], [ %23, %20 ]
  %51 = getelementptr inbounds nuw i8, ptr %.1.i, i64 8
  %52 = load i32, ptr %51, align 8, !tbaa !20
  switch i32 %52, label %lua_touserdata.exit [
    i32 5, label %53
    i32 6, label %55
    i32 8, label %57
    i32 7, label %59
    i32 2, label %59
  ]

53:                                               ; preds = %index2adr.exit
  %54 = load ptr, ptr %.1.i, align 8, !tbaa !19
  br label %lua_touserdata.exit

55:                                               ; preds = %index2adr.exit
  %56 = load ptr, ptr %.1.i, align 8, !tbaa !19
  br label %lua_touserdata.exit

57:                                               ; preds = %index2adr.exit
  %58 = load ptr, ptr %.1.i, align 8, !tbaa !19
  br label %lua_touserdata.exit

59:                                               ; preds = %index2adr.exit, %index2adr.exit
  br i1 %3, label %60, label %68

60:                                               ; preds = %59
  %61 = getelementptr inbounds nuw i8, ptr %0, i64 24
  %62 = load ptr, ptr %61, align 8, !tbaa !21
  %63 = zext nneg i32 %1 to i64
  %64 = getelementptr %struct.lua_TValue, ptr %62, i64 %63
  %65 = getelementptr i8, ptr %64, i64 -16
  %66 = getelementptr inbounds nuw i8, ptr %0, i64 16
  %67 = load ptr, ptr %66, align 8, !tbaa !4
  %.not28.i.i = icmp ult ptr %65, %67
  %.luaO_nilobject_.i.i = select i1 %.not28.i.i, ptr %65, ptr @luaO_nilobject_
  br label %index2adr.exit.i

68:                                               ; preds = %59
  %69 = icmp sgt i32 %1, -10000
  br i1 %69, label %70, label %75

70:                                               ; preds = %68
  %71 = getelementptr inbounds nuw i8, ptr %0, i64 16
  %72 = load ptr, ptr %71, align 8, !tbaa !4
  %73 = sext i32 %1 to i64
  %74 = getelementptr inbounds %struct.lua_TValue, ptr %72, i64 %73
  br label %index2adr.exit.i

75:                                               ; preds = %68
  switch i32 %1, label %92 [
    i32 -10000, label %76
    i32 -10001, label %80
    i32 -10002, label %90
  ]

76:                                               ; preds = %75
  %77 = getelementptr inbounds nuw i8, ptr %0, i64 32
  %78 = load ptr, ptr %77, align 8, !tbaa !29
  %79 = getelementptr inbounds nuw i8, ptr %78, i64 160
  br label %index2adr.exit.i

80:                                               ; preds = %75
  %81 = getelementptr inbounds nuw i8, ptr %0, i64 40
  %82 = load ptr, ptr %81, align 8, !tbaa !23
  %83 = getelementptr inbounds nuw i8, ptr %82, i64 8
  %84 = load ptr, ptr %83, align 8, !tbaa !41
  %85 = load ptr, ptr %84, align 8, !tbaa !19
  %86 = getelementptr inbounds nuw i8, ptr %0, i64 136
  %87 = getelementptr inbounds nuw i8, ptr %85, i64 24
  %88 = load ptr, ptr %87, align 8, !tbaa !19
  store ptr %88, ptr %86, align 8, !tbaa !19
  %89 = getelementptr inbounds nuw i8, ptr %0, i64 144
  store i32 5, ptr %89, align 8, !tbaa !20
  br label %index2adr.exit.i

90:                                               ; preds = %75
  %91 = getelementptr inbounds nuw i8, ptr %0, i64 120
  br label %index2adr.exit.i

92:                                               ; preds = %75
  %93 = getelementptr inbounds nuw i8, ptr %0, i64 40
  %94 = load ptr, ptr %93, align 8, !tbaa !23
  %95 = getelementptr inbounds nuw i8, ptr %94, i64 8
  %96 = load ptr, ptr %95, align 8, !tbaa !41
  %97 = load ptr, ptr %96, align 8, !tbaa !19
  %98 = sub nuw nsw i32 -10002, %1
  %99 = getelementptr inbounds nuw i8, ptr %97, i64 11
  %100 = load i8, ptr %99, align 1, !tbaa !19
  %101 = zext i8 %100 to i32
  %.not.i.i = icmp samesign ugt i32 %98, %101
  %102 = getelementptr inbounds nuw i8, ptr %97, i64 40
  %103 = sub nuw nsw i32 -10003, %1
  %104 = zext nneg i32 %103 to i64
  %105 = getelementptr inbounds nuw [1 x %struct.lua_TValue], ptr %102, i64 0, i64 %104
  %106 = select i1 %.not.i.i, ptr @luaO_nilobject_, ptr %105
  br label %index2adr.exit.i

index2adr.exit.i:                                 ; preds = %92, %90, %80, %76, %70, %60
  %.1.i.i = phi ptr [ %.luaO_nilobject_.i.i, %60 ], [ %74, %70 ], [ %106, %92 ], [ %91, %90 ], [ %86, %80 ], [ %79, %76 ]
  %107 = getelementptr inbounds nuw i8, ptr %.1.i.i, i64 8
  %108 = load i32, ptr %107, align 8, !tbaa !20
  switch i32 %108, label %lua_touserdata.exit [
    i32 7, label %109
    i32 2, label %112
  ]

109:                                              ; preds = %index2adr.exit.i
  %110 = load ptr, ptr %.1.i.i, align 8, !tbaa !19
  %111 = getelementptr inbounds nuw i8, ptr %110, i64 40
  br label %lua_touserdata.exit

112:                                              ; preds = %index2adr.exit.i
  %113 = load ptr, ptr %.1.i.i, align 8, !tbaa !19
  br label %lua_touserdata.exit

lua_touserdata.exit:                              ; preds = %112, %109, %index2adr.exit.i, %index2adr.exit, %57, %55, %53
  %.0 = phi ptr [ %58, %57 ], [ %56, %55 ], [ %54, %53 ], [ null, %index2adr.exit ], [ %113, %112 ], [ %111, %109 ], [ null, %index2adr.exit.i ]
  ret ptr %.0
}